target datalayout = "e-m:e-p270:32:32-p271:32:32-p272:64:64-i64:64-i128:128-f80:128-n8:16:32:64-S128"
target triple = "x86_64-pc-linux-gnu"

; Function Attrs: mustprogress nounwind uwtable
define linkonce_odr hidden void @_ZN2cv12cpu_baseline13accW_general_IfdEEvPKT_PT0_PKhiidi(ptr noundef %0, ptr noundef %1, ptr noundef %2, i32 noundef %3, i32 noundef %4, double noundef %5, i32 noundef %6) #2 comdat {
  %8 = alloca ptr, align 8
  %9 = alloca ptr, align 8
  %10 = alloca ptr, align 8
  %11 = alloca i32, align 4
  %12 = alloca i32, align 4
  %13 = alloca double, align 8
  %14 = alloca i32, align 4
  %15 = alloca double, align 8
  %16 = alloca double, align 8
  %17 = alloca i32, align 4
  %18 = alloca i32, align 4
  store ptr %0, ptr %8, align 8, !tbaa !8
  store ptr %1, ptr %9, align 8, !tbaa !29
  store ptr %2, ptr %10, align 8, !tbaa !3
  store i32 %3, ptr %11, align 4, !tbaa !10
  store i32 %4, ptr %12, align 4, !tbaa !10
  store double %5, ptr %13, align 8, !tbaa !31
  store i32 %6, ptr %14, align 4, !tbaa !10
  call void @llvm.lifetime.start.p0(i64 8, ptr %15) #4
  %19 = load double, ptr %13, align 8, !tbaa !31
  store double %19, ptr %15, align 8, !tbaa !31
  call void @llvm.lifetime.start.p0(i64 8, ptr %16) #4
  %20 = load double, ptr %15, align 8, !tbaa !31
  %21 = fsub double 1.000000e+00, %20
  store double %21, ptr %16, align 8, !tbaa !31
  call void @llvm.lifetime.start.p0(i64 4, ptr %17) #4
  %22 = load i32, ptr %14, align 4, !tbaa !10
  store i32 %22, ptr %17, align 4, !tbaa !10
  %23 = load ptr, ptr %10, align 8, !tbaa !3
  %24 = icmp ne ptr %23, null
  br i1 %24, label %57, label %25

25:                                               ; preds = %7
  %26 = load i32, ptr %12, align 4, !tbaa !10
  %27 = load i32, ptr %11, align 4, !tbaa !10
  %28 = mul nsw i32 %27, %26
  store i32 %28, ptr %11, align 4, !tbaa !10
  br label %29

29:                                               ; preds = %53, %25
  %30 = load i32, ptr %17, align 4, !tbaa !10
  %31 = load i32, ptr %11, align 4, !tbaa !10
  %32 = icmp slt i32 %30, %31
  br i1 %32, label %33, label %56

33:                                               ; preds = %29
  %34 = load ptr, ptr %8, align 8, !tbaa !8
  %35 = load i32, ptr %17, align 4, !tbaa !10
  %36 = sext i32 %35 to i64
  %37 = getelementptr inbounds float, ptr %34, i64 %36
  %38 = load float, ptr %37, align 4, !tbaa !13
  %39 = fpext float %38 to double
  %40 = load double, ptr %15, align 8, !tbaa !31
  %41 = load ptr, ptr %9, align 8, !tbaa !29
  %42 = load i32, ptr %17, align 4, !tbaa !10
  %43 = sext i32 %42 to i64
  %44 = getelementptr inbounds double, ptr %41, i64 %43
  %45 = load double, ptr %44, align 8, !tbaa !31
  %46 = load double, ptr %16, align 8, !tbaa !31
  %47 = fmul double %45, %46
  %48 = call double @llvm.fmuladd.f64(double %39, double %40, double %47)
  %49 = load ptr, ptr %9, align 8, !tbaa !29
  %50 = load i32, ptr %17, align 4, !tbaa !10
  %51 = sext i32 %50 to i64
  %52 = getelementptr inbounds double, ptr %49, i64 %51
  store double %48, ptr %52, align 8, !tbaa !31
  br label %53

53:                                               ; preds = %33
  %54 = load i32, ptr %17, align 4, !tbaa !10
  %55 = add nsw i32 %54, 1
  store i32 %55, ptr %17, align 4, !tbaa !10
  br label %29, !llvm.loop !102

56:                                               ; preds = %29
  br label %124

57:                                               ; preds = %7
  %58 = load i32, ptr %17, align 4, !tbaa !10
  %59 = load i32, ptr %12, align 4, !tbaa !10
  %60 = mul nsw i32 %58, %59
  %61 = load ptr, ptr %8, align 8, !tbaa !8
  %62 = sext i32 %60 to i64
  %63 = getelementptr inbounds float, ptr %61, i64 %62
  store ptr %63, ptr %8, align 8, !tbaa !8
  %64 = load i32, ptr %17, align 4, !tbaa !10
  %65 = load i32, ptr %12, align 4, !tbaa !10
  %66 = mul nsw i32 %64, %65
  %67 = load ptr, ptr %9, align 8, !tbaa !29
  %68 = sext i32 %66 to i64
  %69 = getelementptr inbounds double, ptr %67, i64 %68
  store ptr %69, ptr %9, align 8, !tbaa !29
  br label %70

70:                                               ; preds = %112, %57
  %71 = load i32, ptr %17, align 4, !tbaa !10
  %72 = load i32, ptr %11, align 4, !tbaa !10
  %73 = icmp slt i32 %71, %72
  br i1 %73, label %74, label %123

74:                                               ; preds = %70
  %75 = load ptr, ptr %10, align 8, !tbaa !3
  %76 = load i32, ptr %17, align 4, !tbaa !10
  %77 = sext i32 %76 to i64
  %78 = getelementptr inbounds i8, ptr %75, i64 %77
  %79 = load i8, ptr %78, align 1, !tbaa !12
  %80 = icmp ne i8 %79, 0
  br i1 %80, label %81, label %111

81:                                               ; preds = %74
  call void @llvm.lifetime.start.p0(i64 4, ptr %18) #4
  store i32 0, ptr %18, align 4, !tbaa !10
  br label %82

82:                                               ; preds = %107, %81
  %83 = load i32, ptr %18, align 4, !tbaa !10
  %84 = load i32, ptr %12, align 4, !tbaa !10
  %85 = icmp slt i32 %83, %84
  br i1 %85, label %87, label %86

86:                                               ; preds = %82
  call void @llvm.lifetime.end.p0(i64 4, ptr %18) #4
  br label %110

87:                                               ; preds = %82
  %88 = load ptr, ptr %8, align 8, !tbaa !8
  %89 = load i32, ptr %18, align 4, !tbaa !10
  %90 = sext i32 %89 to i64
  %91 = getelementptr inbounds float, ptr %88, i64 %90
  %92 = load float, ptr %91, align 4, !tbaa !13
  %93 = fpext float %92 to double
  %94 = load double, ptr %15, align 8, !tbaa !31
  %95 = load ptr, ptr %9, align 8, !tbaa !29
  %96 = load i32, ptr %18, align 4, !tbaa !10
  %97 = sext i32 %96 to i64
  %98 = getelementptr inbounds double, ptr %95, i64 %97
  %99 = load double, ptr %98, align 8, !tbaa !31
  %100 = load double, ptr %16, align 8, !tbaa !31
  %101 = fmul double %99, %100
  %102 = call double @llvm.fmuladd.f64(double %93, double %94, double %101)
  %103 = load ptr, ptr %9, align 8, !tbaa !29
  %104 = load i32, ptr %18, align 4, !tbaa !10
  %105 = sext i32 %104 to i64
  %106 = getelementptr inbounds double, ptr %103, i64 %105
  store double %102, ptr %106, align 8, !tbaa !31
  br label %107

107:                                              ; preds = %87
  %108 = load i32, ptr %18, align 4, !tbaa !10
  %109 = add nsw i32 %108, 1
  store i32 %109, ptr %18, align 4, !tbaa !10
  br label %82, !llvm.loop !103

110:                                              ; preds = %86
  br label %111

111:                                              ; preds = %110, %74
  br label %112

112:                                              ; preds = %111
  %113 = load i32, ptr %17, align 4, !tbaa !10
  %114 = add nsw i32 %113, 1
  store i32 %114, ptr %17, align 4, !tbaa !10
  %115 = load i32, ptr %12, align 4, !tbaa !10
  %116 = load ptr, ptr %8, align 8, !tbaa !8
  %117 = sext i32 %115 to i64
  %118 = getelementptr inbounds float, ptr %116, i64 %117
  store ptr %118, ptr %8, align 8, !tbaa !8
  %119 = load i32, ptr %12, align 4, !tbaa !10
  %120 = load ptr, ptr %9, align 8, !tbaa !29
  %121 = sext i32 %119 to i64
  %122 = getelementptr inbounds double, ptr %120, i64 %121
  store ptr %122, ptr %9, align 8, !tbaa !29
  br label %70, !llvm.loop !104

123:                                              ; preds = %70
  br label %124

124:                                              ; preds = %123, %56
  call void @llvm.lifetime.end.p0(i64 4, ptr %17) #4
  call void @llvm.lifetime.end.p0(i64 8, ptr %16) #4
  call void @llvm.lifetime.end.p0(i64 8, ptr %15) #4
  ret void
}

; Function Attrs: mustprogress uwtable
define hidden void @_ZN2cv12cpu_baseline10accW_simd_EPKfPdPKhiid(ptr noundef %0, ptr noundef %1, ptr noundef %2, i32 noundef %3, i32 noundef %4, double noundef %5) #0 {
  %7 = alloca ptr, align 8
  %8 = alloca ptr, align 8
  %9 = alloca ptr, align 8
  %10 = alloca i32, align 4
  %11 = alloca i32, align 4
  %12 = alloca double, align 8
  %13 = alloca i32, align 4
  store ptr %0, ptr %7, align 8, !tbaa !8
  store ptr %1, ptr %8, align 8, !tbaa !29
  store ptr %2, ptr %9, align 8, !tbaa !3
  store i32 %3, ptr %10, align 4, !tbaa !10
  store i32 %4, ptr %11, align 4, !tbaa !10
  store double %5, ptr %12, align 8, !tbaa !31
  call void @llvm.lifetime.start.p0(i64 4, ptr %13) #4
  store i32 0, ptr %13, align 4, !tbaa !10
  %14 = load ptr, ptr %7, align 8, !tbaa !8
  %15 = load ptr, ptr %8, align 8, !tbaa !29
  %16 = load ptr, ptr %9, align 8, !tbaa !3
  %17 = load i32, ptr %10, align 4, !tbaa !10
  %18 = load i32, ptr %11, align 4, !tbaa !10
  %19 = load double, ptr %12, align 8, !tbaa !31
  %20 = load i32, ptr %13, align 4, !tbaa !10
  call void @_ZN2cv12cpu_baseline13accW_general_IfdEEvPKT_PT0_PKhiidi(ptr noundef %14, ptr noundef %15, ptr noundef %16, i32 noundef %17, i32 noundef %18, double noundef %19, i32 noundef %20)
  call void @llvm.lifetime.end.p0(i64 4, ptr %13) #4
  ret void
}

; Function Attrs: mustprogress uwtable
define hidden void @_ZN2cv11accW_32f64fEPKfPdPKhiid(ptr noundef %0, ptr noundef %1, ptr noundef %2, i32 noundef %3, i32 noundef %4, double noundef %5) #0 {
  %7 = alloca ptr, align 8
  %8 = alloca ptr, align 8
  %9 = alloca ptr, align 8
  %10 = alloca i32, align 4
  %11 = alloca i32, align 4
  %12 = alloca double, align 8
  store ptr %0, ptr %7, align 8, !tbaa !8
  store ptr %1, ptr %8, align 8, !tbaa !29
  store ptr %2, ptr %9, align 8, !tbaa !3
  store i32 %3, ptr %10, align 4, !tbaa !10
  store i32 %4, ptr %11, align 4, !tbaa !10
  store double %5, ptr %12, align 8, !tbaa !31
  %13 = load ptr, ptr %7, align 8, !tbaa !8
  %14 = load ptr, ptr %8, align 8, !tbaa !29
  %15 = load ptr, ptr %9, align 8, !tbaa !3
  %16 = load i32, ptr %10, align 4, !tbaa !10
  %17 = load i32, ptr %11, align 4, !tbaa !10
  %18 = load double, ptr %12, align 8, !tbaa !31
  call void @_ZN2cv12cpu_baseline10accW_simd_EPKfPdPKhiid(ptr noundef %13, ptr noundef %14, ptr noundef %15, i32 noundef %16, i32 noundef %17, double noundef %18)
  ret void
}